Certificate:
    Data:
        Version: 3 (0x2)
        Serial Number:
            22:d1:1a:d3:f6:75:31:d9:e1:e0:c6:fa:07:22:c0:b6:8d:1f:08:c5
        Signature Algorithm: sha256WithRSAEncryption
        Issuer: C=JP, ST=Tokyo, O=A, OU=B, CN=test.root.com
        Validity
            Not Before: Apr 25 12:07:42 2024 GMT
            Not After : Apr 25 12:07:42 2025 GMT
        Subject: C=JP, ST=Tokyo, O=A, OU=B, CN=test.ca.jp
        Subject Public Key Info:
            Public Key Algorithm: rsaEncryption
                Public-Key: (2048 bit)
                Modulus:
                    00:8e:49:78:35:9d:57:73:d6:9b:19:43:a4:eb:77:
                    6a:68:d7:ec:6f:53:91:65:76:92:b4:a6:ab:54:60:
                    3d:88:8f:53:a8:85:98:46:f4:c4:f5:e4:af:fd:0b:
                    61:ef:b9:77:24:52:3b:c8:0f:de:72:1f:ac:e8:bd:
                    1a:8d:a8:a9:bc:8a:40:9e:f5:5b:62:64:b5:a0:ba:
                    ba:41:fc:a9:4c:a3:6e:a1:0a:a6:99:f1:04:b2:30:
                    39:98:1f:f6:63:e2:c8:f5:f2:7c:b2:93:1b:33:f7:
                    bf:e7:9f:99:99:2e:48:d2:2e:12:01:78:05:2a:ad:
                    8f:d2:84:90:1f:4f:e0:1a:75:0a:c8:01:25:b5:5b:
                    1e:59:0e:3d:7b:f7:10:6d:fa:97:81:87:ee:a9:c7:
                    e8:1a:01:17:87:fb:fa:cc:54:a7:a7:be:f6:08:c5:
                    ab:f5:9d:5a:d8:e4:f4:40:02:b6:8a:8a:79:f0:96:
                    0d:b7:f3:9a:64:5f:ab:4c:49:33:96:26:c1:88:75:
                    57:ac:b7:89:e1:9a:eb:db:b7:7d:8f:0e:c6:a8:20:
                    6b:bc:a2:3c:38:d8:f5:ea:02:51:f8:ba:71:6d:54:
                    6d:6b:8a:61:63:f3:e2:58:58:15:86:ee:83:fe:50:
                    55:d4:58:1d:2f:dc:d5:20:64:71:7b:f1:f5:3c:09:
                    ac:af
                Exponent: 65537 (0x10001)
        X509v3 extensions:
            X509v3 Subject Key Identifier: 
                37:45:94:1B:76:0F:B4:58:A2:E2:09:71:98:8D:88:C0:45:16:64:BD
            X509v3 Authority Key Identifier: 
                62:C4:2F:CF:00:CA:A5:4A:DF:7E:5E:C8:19:CA:EF:C8:CC:C2:EA:C4
            X509v3 Basic Constraints: critical
                CA:TRUE
    Signature Algorithm: sha256WithRSAEncryption
    Signature Value:
        51:e5:11:34:e3:dd:35:53:bb:53:c8:de:4d:55:81:99:43:4f:
        ce:b2:9c:f3:01:64:23:fc:d4:b0:9d:42:c1:34:62:ee:c0:21:
        59:36:da:e9:c4:83:2f:a7:fd:d3:01:3b:89:16:4e:55:f6:3f:
        95:72:ee:76:ec:b4:6e:68:20:f1:9b:4e:3f:b2:2b:18:ab:84:
        14:09:8d:a4:5f:a4:36:15:e3:44:2c:c0:98:0f:51:50:f0:33:
        6a:e8:a2:2e:12:b8:89:48:3b:64:d3:26:30:bd:b0:31:9a:b5:
        fe:ea:e8:32:dc:1a:2c:59:b1:dc:43:0c:22:86:4c:1b:f6:d3:
        21:69:d8:35:8d:bd:3a:d7:82:a9:95:e3:e5:12:73:e9:41:c5:
        39:42:4b:5c:47:52:90:7a:5f:d4:bb:4d:46:d7:cb:6a:62:3c:
        32:64:fe:62:07:af:77:bc:96:77:c1:8a:1b:00:20:d1:06:e9:
        1b:02:ec:d7:e1:8a:6a:ba:23:02:ab:f7:dc:ba:79:28:20:a9:
        c0:e2:e9:3a:f5:4f:23:4e:ec:a0:5c:bc:50:3b:79:46:c6:84:
        d6:9d:dc:a5:c9:e1:31:7b:d0:4e:d1:2d:b3:16:d5:cf:a0:bb:
        e0:59:50:e2:34:3f:1d:f6:56:bd:ed:ee:09:50:2e:24:d9:8e:
        05:f7:02:f5
-----BEGIN CERTIFICATE-----
MIIDeDCCAmCgAwIBAgIUItEa0/Z1Mdnh4Mb6ByLAto0fCMUwDQYJKoZIhvcNAQEL
BQAwTTELMAkGA1UEBhMCSlAxDjAMBgNVBAgMBVRva3lvMQowCAYDVQQKDAFBMQow
CAYDVQQLDAFCMRYwFAYDVQQDDA10ZXN0LnJvb3QuY29tMB4XDTI0MDQyNTEyMDc0
MloXDTI1MDQyNTEyMDc0MlowSjELMAkGA1UEBhMCSlAxDjAMBgNVBAgMBVRva3lv
MQowCAYDVQQKDAFBMQowCAYDVQQLDAFCMRMwEQYDVQQDDAp0ZXN0LmNhLmpwMIIB
IjANBgkqhkiG9w0BAQEFAAOCAQ8AMIIBCgKCAQEAjkl4NZ1Xc9abGUOk63dqaNfs
b1ORZXaStKarVGA9iI9TqIWYRvTE9eSv/Qth77l3JFI7yA/ech+s6L0ajaipvIpA
nvVbYmS1oLq6QfypTKNuoQqmmfEEsjA5mB/2Y+LI9fJ8spMbM/e/55+ZmS5I0i4S
AXgFKq2P0oSQH0/gGnUKyAEltVseWQ49e/cQbfqXgYfuqcfoGgEXh/v6zFSnp772
CMWr9Z1a2OT0QAK2iop58JYNt/OaZF+rTEkzlibBiHVXrLeJ4Zrr27d9jw7GqCBr
vKI8ONj16gJR+LpxbVRta4phY/PiWFgVhu6D/lBV1FgdL9zVIGRxe/H1PAmsrwID
AQABo1MwUTAdBgNVHQ4EFgQUN0WUG3YPtFii4glxmI2IwEUWZL0wHwYDVR0jBBgw
FoAUYsQvzwDKpUrffl7IGcrvyMzC6sQwDwYDVR0TAQH/BAUwAwEB/zANBgkqhkiG
9w0BAQsFAAOCAQEAUeURNOPdNVO7U8jeTVWBmUNPzrKc8wFkI/zUsJ1CwTRi7sAh
WTba6cSDL6f90wE7iRZOVfY/lXLuduy0bmgg8ZtOP7IrGKuEFAmNpF+kNhXjRCzA
mA9RUPAzauiiLhK4iUg7ZNMmML2wMZq1/uroMtwaLFmx3EMMIoZMG/bTIWnYNY29
OteCqZXj5RJz6UHFOUJLXEdSkHpf1LtNRtfLamI8MmT+Ygevd7yWd8GKGwAg0Qbp
GwLs1+GKarojAqv33Lp5KCCpwOLpOvVPI07soFy8UDt5RsaE1p3cpcnhMXvQTtEt
sxbVz6C74FlQ4jQ/HfZWve3uCVAuJNmOBfcC9Q==
-----END CERTIFICATE-----
